target datalayout = "e-m:e-p270:32:32-p271:32:32-p272:64:64-i64:64-i128:128-f80:128-n8:16:32:64-S128"
target triple = "x86_64-pc-linux-gnu"

%struct.Vec_Int_t_ = type { i32, i32, ptr }

@.str.19 = private unnamed_addr constant [44 x i8] c"Generating random permutation of %d flops.\0A\00", align 1
@.str.20 = private unnamed_addr constant [34 x i8] c"Randomly adding %d unused flops.\0A\00", align 1

; Function Attrs: inlinehint nounwind uwtable
define internal void @Vec_IntGrow(ptr noundef %0, i32 noundef %1) #4 {
  %3 = alloca ptr, align 8
  %4 = alloca i32, align 4
  store ptr %0, ptr %3, align 8, !tbaa !61
  store i32 %1, ptr %4, align 4, !tbaa !24
  %5 = load ptr, ptr %3, align 8, !tbaa !61
  %6 = getelementptr inbounds nuw %struct.Vec_Int_t_, ptr %5, i32 0, i32 0
  %7 = load i32, ptr %6, align 8, !tbaa !161
  %8 = load i32, ptr %4, align 4, !tbaa !24
  %9 = icmp sge i32 %7, %8
  br i1 %9, label %10, label %11

10:                                               ; preds = %2
  br label %36

11:                                               ; preds = %2
  %12 = load ptr, ptr %3, align 8, !tbaa !61
  %13 = getelementptr inbounds nuw %struct.Vec_Int_t_, ptr %12, i32 0, i32 2
  %14 = load ptr, ptr %13, align 8, !tbaa !72
  %15 = icmp ne ptr %14, null
  br i1 %15, label %16, label %24

16:                                               ; preds = %11
  %17 = load ptr, ptr %3, align 8, !tbaa !61
  %18 = getelementptr inbounds nuw %struct.Vec_Int_t_, ptr %17, i32 0, i32 2
  %19 = load ptr, ptr %18, align 8, !tbaa !72
  %20 = load i32, ptr %4, align 4, !tbaa !24
  %21 = sext i32 %20 to i64
  %22 = mul i64 4, %21
  %23 = call ptr @realloc(ptr noundef %19, i64 noundef %22) #15
  br label %29

24:                                               ; preds = %11
  %25 = load i32, ptr %4, align 4, !tbaa !24
  %26 = sext i32 %25 to i64
  %27 = mul i64 4, %26
  %28 = call noalias ptr @malloc(i64 noundef %27) #13
  br label %29

29:                                               ; preds = %24, %16
  %30 = phi ptr [ %23, %16 ], [ %28, %24 ]
  %31 = load ptr, ptr %3, align 8, !tbaa !61
  %32 = getelementptr inbounds nuw %struct.Vec_Int_t_, ptr %31, i32 0, i32 2
  store ptr %30, ptr %32, align 8, !tbaa !72
  %33 = load i32, ptr %4, align 4, !tbaa !24
  %34 = load ptr, ptr %3, align 8, !tbaa !61
  %35 = getelementptr inbounds nuw %struct.Vec_Int_t_, ptr %34, i32 0, i32 0
  store i32 %33, ptr %35, align 8, !tbaa !161
  br label %36

36:                                               ; preds = %29, %10
  ret void
}

; Function Attrs: inlinehint nounwind uwtable
define internal ptr @Vec_IntAlloc(i32 noundef %0) #4 {
  %2 = alloca i32, align 4
  %3 = alloca ptr, align 8
  store i32 %0, ptr %2, align 4, !tbaa !24
  call void @llvm.lifetime.start.p0(i64 8, ptr %3) #11
  %4 = call noalias ptr @malloc(i64 noundef 16) #13
  store ptr %4, ptr %3, align 8, !tbaa !61
  %5 = load i32, ptr %2, align 4, !tbaa !24
  %6 = icmp sgt i32 %5, 0
  br i1 %6, label %7, label %11

7:                                                ; preds = %1
  %8 = load i32, ptr %2, align 4, !tbaa !24
  %9 = icmp slt i32 %8, 16
  br i1 %9, label %10, label %11

10:                                               ; preds = %7
  store i32 16, ptr %2, align 4, !tbaa !24
  br label %11

11:                                               ; preds = %10, %7, %1
  %12 = load ptr, ptr %3, align 8, !tbaa !61
  %13 = getelementptr inbounds nuw %struct.Vec_Int_t_, ptr %12, i32 0, i32 1
  store i32 0, ptr %13, align 4, !tbaa !70
  %14 = load i32, ptr %2, align 4, !tbaa !24
  %15 = load ptr, ptr %3, align 8, !tbaa !61
  %16 = getelementptr inbounds nuw %struct.Vec_Int_t_, ptr %15, i32 0, i32 0
  store i32 %14, ptr %16, align 8, !tbaa !161
  %17 = load ptr, ptr %3, align 8, !tbaa !61
  %18 = getelementptr inbounds nuw %struct.Vec_Int_t_, ptr %17, i32 0, i32 0
  %19 = load i32, ptr %18, align 8, !tbaa !161
  %20 = icmp ne i32 %19, 0
  br i1 %20, label %21, label %28

21:                                               ; preds = %11
  %22 = load ptr, ptr %3, align 8, !tbaa !61
  %23 = getelementptr inbounds nuw %struct.Vec_Int_t_, ptr %22, i32 0, i32 0
  %24 = load i32, ptr %23, align 8, !tbaa !161
  %25 = sext i32 %24 to i64
  %26 = mul i64 4, %25
  %27 = call noalias ptr @malloc(i64 noundef %26) #13
  br label %29

28:                                               ; preds = %11
  br label %29

29:                                               ; preds = %28, %21
  %30 = phi ptr [ %27, %21 ], [ null, %28 ]
  %31 = load ptr, ptr %3, align 8, !tbaa !61
  %32 = getelementptr inbounds nuw %struct.Vec_Int_t_, ptr %31, i32 0, i32 2
  store ptr %30, ptr %32, align 8, !tbaa !72
  %33 = load ptr, ptr %3, align 8, !tbaa !61
  call void @llvm.lifetime.end.p0(i64 8, ptr %3) #11
  ret ptr %33
}

; Function Attrs: inlinehint nounwind uwtable
define internal void @Vec_IntPush(ptr noundef %0, i32 noundef %1) #4 {
  %3 = alloca ptr, align 8
  %4 = alloca i32, align 4
  store ptr %0, ptr %3, align 8, !tbaa !61
  store i32 %1, ptr %4, align 4, !tbaa !24
  %5 = load ptr, ptr %3, align 8, !tbaa !61
  %6 = getelementptr inbounds nuw %struct.Vec_Int_t_, ptr %5, i32 0, i32 1
  %7 = load i32, ptr %6, align 4, !tbaa !70
  %8 = load ptr, ptr %3, align 8, !tbaa !61
  %9 = getelementptr inbounds nuw %struct.Vec_Int_t_, ptr %8, i32 0, i32 0
  %10 = load i32, ptr %9, align 8, !tbaa !161
  %11 = icmp eq i32 %7, %10
  br i1 %11, label %12, label %26

12:                                               ; preds = %2
  %13 = load ptr, ptr %3, align 8, !tbaa !61
  %14 = getelementptr inbounds nuw %struct.Vec_Int_t_, ptr %13, i32 0, i32 0
  %15 = load i32, ptr %14, align 8, !tbaa !161
  %16 = icmp slt i32 %15, 16
  br i1 %16, label %17, label %19

17:                                               ; preds = %12
  %18 = load ptr, ptr %3, align 8, !tbaa !61
  call void @Vec_IntGrow(ptr noundef %18, i32 noundef 16)
  br label %25

19:                                               ; preds = %12
  %20 = load ptr, ptr %3, align 8, !tbaa !61
  %21 = load ptr, ptr %3, align 8, !tbaa !61
  %22 = getelementptr inbounds nuw %struct.Vec_Int_t_, ptr %21, i32 0, i32 0
  %23 = load i32, ptr %22, align 8, !tbaa !161
  %24 = mul nsw i32 2, %23
  call void @Vec_IntGrow(ptr noundef %20, i32 noundef %24)
  br label %25

25:                                               ; preds = %19, %17
  br label %26

26:                                               ; preds = %25, %2
  %27 = load i32, ptr %4, align 4, !tbaa !24
  %28 = load ptr, ptr %3, align 8, !tbaa !61
  %29 = getelementptr inbounds nuw %struct.Vec_Int_t_, ptr %28, i32 0, i32 2
  %30 = load ptr, ptr %29, align 8, !tbaa !72
  %31 = load ptr, ptr %3, align 8, !tbaa !61
  %32 = getelementptr inbounds nuw %struct.Vec_Int_t_, ptr %31, i32 0, i32 1
  %33 = load i32, ptr %32, align 4, !tbaa !70
  %34 = add nsw i32 %33, 1
  store i32 %34, ptr %32, align 4, !tbaa !70
  %35 = sext i32 %33 to i64
  %36 = getelementptr inbounds i32, ptr %30, i64 %35
  store i32 %27, ptr %36, align 4, !tbaa !24
  ret void
}

; Function Attrs: inlinehint nounwind uwtable
define internal i32 @Vec_IntSize(ptr noundef %0) #4 {
  %2 = alloca ptr, align 8
  store ptr %0, ptr %2, align 8, !tbaa !61
  %3 = load ptr, ptr %2, align 8, !tbaa !61
  %4 = getelementptr inbounds nuw %struct.Vec_Int_t_, ptr %3, i32 0, i32 1
  %5 = load i32, ptr %4, align 4, !tbaa !70
  ret i32 %5
}

; Function Attrs: inlinehint nounwind uwtable
define internal ptr @Vec_IntArray(ptr noundef %0) #4 {
  %2 = alloca ptr, align 8
  store ptr %0, ptr %2, align 8, !tbaa !61
  %3 = load ptr, ptr %2, align 8, !tbaa !61
  %4 = getelementptr inbounds nuw %struct.Vec_Int_t_, ptr %3, i32 0, i32 2
  %5 = load ptr, ptr %4, align 8, !tbaa !72
  ret ptr %5
}

; Function Attrs: inlinehint nounwind uwtable
define internal ptr @Vec_IntStartNatural(i32 noundef %0) #4 {
  %2 = alloca i32, align 4
  %3 = alloca ptr, align 8
  %4 = alloca i32, align 4
  store i32 %0, ptr %2, align 4, !tbaa !24
  call void @llvm.lifetime.start.p0(i64 8, ptr %3) #11
  call void @llvm.lifetime.start.p0(i64 4, ptr %4) #11
  %5 = load i32, ptr %2, align 4, !tbaa !24
  %6 = call ptr @Vec_IntAlloc(i32 noundef %5)
  store ptr %6, ptr %3, align 8, !tbaa !61
  %7 = load i32, ptr %2, align 4, !tbaa !24
  %8 = load ptr, ptr %3, align 8, !tbaa !61
  %9 = getelementptr inbounds nuw %struct.Vec_Int_t_, ptr %8, i32 0, i32 1
  store i32 %7, ptr %9, align 4, !tbaa !70
  store i32 0, ptr %4, align 4, !tbaa !24
  br label %10

10:                                               ; preds = %22, %1
  %11 = load i32, ptr %4, align 4, !tbaa !24
  %12 = load i32, ptr %2, align 4, !tbaa !24
  %13 = icmp slt i32 %11, %12
  br i1 %13, label %14, label %25

14:                                               ; preds = %10
  %15 = load i32, ptr %4, align 4, !tbaa !24
  %16 = load ptr, ptr %3, align 8, !tbaa !61
  %17 = getelementptr inbounds nuw %struct.Vec_Int_t_, ptr %16, i32 0, i32 2
  %18 = load ptr, ptr %17, align 8, !tbaa !72
  %19 = load i32, ptr %4, align 4, !tbaa !24
  %20 = sext i32 %19 to i64
  %21 = getelementptr inbounds i32, ptr %18, i64 %20
  store i32 %15, ptr %21, align 4, !tbaa !24
  br label %22

22:                                               ; preds = %14
  %23 = load i32, ptr %4, align 4, !tbaa !24
  %24 = add nsw i32 %23, 1
  store i32 %24, ptr %4, align 4, !tbaa !24
  br label %10, !llvm.loop !160

25:                                               ; preds = %10
  %26 = load ptr, ptr %3, align 8, !tbaa !61
  call void @llvm.lifetime.end.p0(i64 4, ptr %4) #11
  call void @llvm.lifetime.end.p0(i64 8, ptr %3) #11
  ret ptr %26
}

; Function Attrs: nounwind uwtable
define ptr @Ssw_RarRandomPermFlop(i32 noundef %0, i32 noundef %1) #0 {
  %3 = alloca i32, align 4
  %4 = alloca i32, align 4
  %5 = alloca ptr, align 8
  %6 = alloca i32, align 4
  %7 = alloca i32, align 4
  %8 = alloca ptr, align 8
  %9 = alloca i32, align 4
  %10 = alloca i32, align 4
  store i32 %0, ptr %3, align 4, !tbaa !24
  store i32 %1, ptr %4, align 4, !tbaa !24
  call void @llvm.lifetime.start.p0(i64 8, ptr %5) #11
  call void @llvm.lifetime.start.p0(i64 4, ptr %6) #11
  call void @llvm.lifetime.start.p0(i64 4, ptr %7) #11
  call void @llvm.lifetime.start.p0(i64 8, ptr %8) #11
  call void @srand(i32 noundef 1) #11
  %11 = load i32, ptr %3, align 4, !tbaa !24
  %12 = call i32 (ptr, ...) @printf(ptr noundef @.str.19, i32 noundef %11)
  %13 = load i32, ptr %3, align 4, !tbaa !24
  %14 = call ptr @Vec_IntStartNatural(i32 noundef %13)
  store ptr %14, ptr %5, align 8, !tbaa !61
  %15 = load ptr, ptr %5, align 8, !tbaa !61
  %16 = call ptr @Vec_IntArray(ptr noundef %15)
  store ptr %16, ptr %8, align 8, !tbaa !74
  store i32 0, ptr %6, align 4, !tbaa !24
  br label %17

17:                                               ; preds = %44, %2
  %18 = load i32, ptr %6, align 4, !tbaa !24
  %19 = load i32, ptr %3, align 4, !tbaa !24
  %20 = icmp slt i32 %18, %19
  br i1 %20, label %21, label %47

21:                                               ; preds = %17
  %22 = call i32 @rand() #11
  %23 = load i32, ptr %3, align 4, !tbaa !24
  %24 = srem i32 %22, %23
  store i32 %24, ptr %7, align 4, !tbaa !24
  call void @llvm.lifetime.start.p0(i64 4, ptr %9) #11
  %25 = load ptr, ptr %8, align 8, !tbaa !74
  %26 = load i32, ptr %6, align 4, !tbaa !24
  %27 = sext i32 %26 to i64
  %28 = getelementptr inbounds i32, ptr %25, i64 %27
  %29 = load i32, ptr %28, align 4, !tbaa !24
  store i32 %29, ptr %9, align 4, !tbaa !24
  %30 = load ptr, ptr %8, align 8, !tbaa !74
  %31 = load i32, ptr %7, align 4, !tbaa !24
  %32 = sext i32 %31 to i64
  %33 = getelementptr inbounds i32, ptr %30, i64 %32
  %34 = load i32, ptr %33, align 4, !tbaa !24
  %35 = load ptr, ptr %8, align 8, !tbaa !74
  %36 = load i32, ptr %6, align 4, !tbaa !24
  %37 = sext i32 %36 to i64
  %38 = getelementptr inbounds i32, ptr %35, i64 %37
  store i32 %34, ptr %38, align 4, !tbaa !24
  %39 = load i32, ptr %9, align 4, !tbaa !24
  %40 = load ptr, ptr %8, align 8, !tbaa !74
  %41 = load i32, ptr %7, align 4, !tbaa !24
  %42 = sext i32 %41 to i64
  %43 = getelementptr inbounds i32, ptr %40, i64 %42
  store i32 %39, ptr %43, align 4, !tbaa !24
  call void @llvm.lifetime.end.p0(i64 4, ptr %9) #11
  br label %44

44:                                               ; preds = %21
  %45 = load i32, ptr %6, align 4, !tbaa !24
  %46 = add nsw i32 %45, 1
  store i32 %46, ptr %6, align 4, !tbaa !24
  br label %17, !llvm.loop !158

47:                                               ; preds = %17
  %48 = load i32, ptr %4, align 4, !tbaa !24
  %49 = call i32 (ptr, ...) @printf(ptr noundef @.str.20, i32 noundef %48)
  store i32 0, ptr %6, align 4, !tbaa !24
  br label %50

50:                                               ; preds = %85, %47
  %51 = load i32, ptr %6, align 4, !tbaa !24
  %52 = load i32, ptr %4, align 4, !tbaa !24
  %53 = icmp slt i32 %51, %52
  br i1 %53, label %54, label %88

54:                                               ; preds = %50
  %55 = call i32 @rand() #11
  %56 = load ptr, ptr %5, align 8, !tbaa !61
  %57 = call i32 @Vec_IntSize(ptr noundef %56)
  %58 = srem i32 %55, %57
  store i32 %58, ptr %7, align 4, !tbaa !24
  %59 = load ptr, ptr %5, align 8, !tbaa !61
  call void @Vec_IntPush(ptr noundef %59, i32 noundef -1)
  %60 = load ptr, ptr %5, align 8, !tbaa !61
  %61 = call ptr @Vec_IntArray(ptr noundef %60)
  store ptr %61, ptr %8, align 8, !tbaa !74
  call void @llvm.lifetime.start.p0(i64 4, ptr %10) #11
  %62 = load ptr, ptr %8, align 8, !tbaa !74
  %63 = load ptr, ptr %5, align 8, !tbaa !61
  %64 = call i32 @Vec_IntSize(ptr noundef %63)
  %65 = sub nsw i32 %64, 1
  %66 = sext i32 %65 to i64
  %67 = getelementptr inbounds i32, ptr %62, i64 %66
  %68 = load i32, ptr %67, align 4, !tbaa !24
  store i32 %68, ptr %10, align 4, !tbaa !24
  %69 = load ptr, ptr %8, align 8, !tbaa !74
  %70 = load i32, ptr %7, align 4, !tbaa !24
  %71 = sext i32 %70 to i64
  %72 = getelementptr inbounds i32, ptr %69, i64 %71
  %73 = load i32, ptr %72, align 4, !tbaa !24
  %74 = load ptr, ptr %8, align 8, !tbaa !74
  %75 = load ptr, ptr %5, align 8, !tbaa !61
  %76 = call i32 @Vec_IntSize(ptr noundef %75)
  %77 = sub nsw i32 %76, 1
  %78 = sext i32 %77 to i64
  %79 = getelementptr inbounds i32, ptr %74, i64 %78
  store i32 %73, ptr %79, align 4, !tbaa !24
  %80 = load i32, ptr %10, align 4, !tbaa !24
  %81 = load ptr, ptr %8, align 8, !tbaa !74
  %82 = load i32, ptr %7, align 4, !tbaa !24
  %83 = sext i32 %82 to i64
  %84 = getelementptr inbounds i32, ptr %81, i64 %83
  store i32 %80, ptr %84, align 4, !tbaa !24
  call void @llvm.lifetime.end.p0(i64 4, ptr %10) #11
  br label %85

85:                                               ; preds = %54
  %86 = load i32, ptr %6, align 4, !tbaa !24
  %87 = add nsw i32 %86, 1
  store i32 %87, ptr %6, align 4, !tbaa !24
  br label %50, !llvm.loop !159

88:                                               ; preds = %50
  %89 = load ptr, ptr %5, align 8, !tbaa !61
  call void @llvm.lifetime.end.p0(i64 8, ptr %8) #11
  call void @llvm.lifetime.end.p0(i64 4, ptr %7) #11
  call void @llvm.lifetime.end.p0(i64 4, ptr %6) #11
  call void @llvm.lifetime.end.p0(i64 8, ptr %5) #11
  ret ptr %89
}