; Function Attrs: nounwind uwtable
define noalias noundef ptr @Ssw_RarRandomPermFlop(i32 noundef %0, i32 noundef %1) local_unnamed_addr #2 {
  tail call void @srand(i32 noundef 1) #20
  %3 = tail call i32 (ptr, ...) @printf(ptr noundef nonnull dereferenceable(1) @.str.19, i32 noundef %0)
  %4 = tail call noalias dereferenceable_or_null(16) ptr @malloc(i64 noundef 16) #21
  %5 = add i32 %0, -1
  %or.cond.i.i = icmp ult i32 %5, 15
  %spec.store.select.i.i = select i1 %or.cond.i.i, i32 16, i32 %0
  %6 = getelementptr i8, ptr %4, i64 4
  store i32 %spec.store.select.i.i, ptr %4, align 8, !tbaa !128
  %.not.i.i = icmp eq i32 %spec.store.select.i.i, 0
  br i1 %.not.i.i, label %Vec_IntAlloc.exit.i, label %7

7:                                                ; preds = %2
  %8 = sext i32 %spec.store.select.i.i to i64
  %9 = shl nsw i64 %8, 2
  %10 = tail call noalias ptr @malloc(i64 noundef %9) #21
  br label %Vec_IntAlloc.exit.i

Vec_IntAlloc.exit.i:                              ; preds = %7, %2
  %11 = phi ptr [ %10, %7 ], [ null, %2 ]
  %12 = getelementptr inbounds nuw i8, ptr %4, i64 8
  store ptr %11, ptr %12, align 8, !tbaa !47
  store i32 %0, ptr %6, align 4, !tbaa !129
  %13 = icmp sgt i32 %0, 0
  br i1 %13, label %.lr.ph.preheader.i, label %._crit_edge

.lr.ph.preheader.i:                               ; preds = %Vec_IntAlloc.exit.i
  %wide.trip.count.i = zext nneg i32 %0 to i64
  br label %.lr.ph.i

.lr.ph.i:                                         ; preds = %.lr.ph.i, %.lr.ph.preheader.i
  %indvars.iv.i = phi i64 [ 0, %.lr.ph.preheader.i ], [ %indvars.iv.next.i, %.lr.ph.i ]
  %14 = getelementptr inbounds nuw i32, ptr %11, i64 %indvars.iv.i
  %15 = trunc nuw nsw i64 %indvars.iv.i to i32
  store i32 %15, ptr %14, align 4, !tbaa !45
  %indvars.iv.next.i = add nuw nsw i64 %indvars.iv.i, 1
  %exitcond.not.i = icmp eq i64 %indvars.iv.next.i, %wide.trip.count.i
  br i1 %exitcond.not.i, label %.lr.ph.preheader, label %.lr.ph.i, !llvm.loop !155

.lr.ph.preheader:                                 ; preds = %.lr.ph.i
  %wide.trip.count = zext nneg i32 %0 to i64
  br label %.lr.ph

.lr.ph:                                           ; preds = %.lr.ph.preheader, %.lr.ph
  %indvars.iv = phi i64 [ 0, %.lr.ph.preheader ], [ %indvars.iv.next, %.lr.ph ]
  %16 = tail call i32 @rand() #20
  %17 = srem i32 %16, %0
  %18 = getelementptr inbounds nuw i32, ptr %11, i64 %indvars.iv
  %19 = load i32, ptr %18, align 4, !tbaa !45
  %20 = sext i32 %17 to i64
  %21 = getelementptr inbounds i32, ptr %11, i64 %20
  %22 = load i32, ptr %21, align 4, !tbaa !45
  store i32 %22, ptr %18, align 4, !tbaa !45
  store i32 %19, ptr %21, align 4, !tbaa !45
  %indvars.iv.next = add nuw nsw i64 %indvars.iv, 1
  %exitcond.not = icmp eq i64 %indvars.iv.next, %wide.trip.count
  br i1 %exitcond.not, label %._crit_edge, label %.lr.ph, !llvm.loop !156

._crit_edge:                                      ; preds = %.lr.ph, %Vec_IntAlloc.exit.i
  %23 = tail call i32 (ptr, ...) @printf(ptr noundef nonnull dereferenceable(1) @.str.20, i32 noundef %1)
  %24 = icmp sgt i32 %1, 0
  br i1 %24, label %.lr.ph40, label %._crit_edge41

.lr.ph40:                                         ; preds = %._crit_edge, %Vec_IntPush.exit
  %.val3346 = phi ptr [ %.val33, %Vec_IntPush.exit ], [ %11, %._crit_edge ]
  %.val34 = phi i32 [ %.val35, %Vec_IntPush.exit ], [ %0, %._crit_edge ]
  %.138 = phi i32 [ %54, %Vec_IntPush.exit ], [ 0, %._crit_edge ]
  %25 = tail call i32 @rand() #20
  %26 = srem i32 %25, %.val34
  %27 = load i32, ptr %4, align 8, !tbaa !128
  %28 = icmp eq i32 %.val34, %27
  br i1 %28, label %29, label %Vec_IntPush.exit

29:                                               ; preds = %.lr.ph40
  %30 = icmp slt i32 %.val34, 16
  br i1 %30, label %31, label %36

31:                                               ; preds = %29
  %.not9.i.i = icmp eq ptr %.val3346, null
  br i1 %.not9.i.i, label %34, label %32

32:                                               ; preds = %31
  %33 = tail call dereferenceable_or_null(64) ptr @realloc(ptr noundef nonnull %.val3346, i64 noundef 64) #23
  br label %Vec_IntPush.exit.sink.split

34:                                               ; preds = %31
  %35 = tail call noalias dereferenceable_or_null(64) ptr @malloc(i64 noundef 64) #21
  br label %Vec_IntPush.exit.sink.split

36:                                               ; preds = %29
  %37 = shl nuw nsw i32 %.val34, 1
  %.not9.i9.i = icmp eq ptr %.val3346, null
  %38 = zext nneg i32 %37 to i64
  %39 = shl nuw nsw i64 %38, 2
  br i1 %.not9.i9.i, label %42, label %40

40:                                               ; preds = %36
  %41 = tail call ptr @realloc(ptr noundef nonnull %.val3346, i64 noundef %39) #23
  br label %Vec_IntPush.exit.sink.split

42:                                               ; preds = %36
  %43 = tail call noalias ptr @malloc(i64 noundef %39) #21
  br label %Vec_IntPush.exit.sink.split

Vec_IntPush.exit.sink.split:                      ; preds = %40, %42, %32, %34
  %.sink48 = phi ptr [ %33, %32 ], [ %35, %34 ], [ %41, %40 ], [ %43, %42 ]
  %.sink = phi i32 [ 16, %32 ], [ 16, %34 ], [ %37, %40 ], [ %37, %42 ]
  store ptr %.sink48, ptr %12, align 8, !tbaa !47
  store i32 %.sink, ptr %4, align 8, !tbaa !128
  br label %Vec_IntPush.exit

Vec_IntPush.exit:                                 ; preds = %Vec_IntPush.exit.sink.split, %.lr.ph40
  %.val33 = phi ptr [ %.val3346, %.lr.ph40 ], [ %.sink48, %Vec_IntPush.exit.sink.split ]
  %44 = add nsw i32 %.val34, 1
  store i32 %44, ptr %6, align 4, !tbaa !129
  %45 = sext i32 %.val34 to i64
  %46 = getelementptr inbounds i32, ptr %.val33, i64 %45
  store i32 -1, ptr %46, align 4, !tbaa !45
  %.val35 = load i32, ptr %6, align 4, !tbaa !129
  %47 = sext i32 %.val35 to i64
  %48 = getelementptr i32, ptr %.val33, i64 %47
  %49 = getelementptr i8, ptr %48, i64 -4
  %50 = load i32, ptr %49, align 4, !tbaa !45
  %51 = sext i32 %26 to i64
  %52 = getelementptr inbounds i32, ptr %.val33, i64 %51
  %53 = load i32, ptr %52, align 4, !tbaa !45
  store i32 %53, ptr %49, align 4, !tbaa !45
  store i32 %50, ptr %52, align 4, !tbaa !45
  %54 = add nuw nsw i32 %.138, 1
  %exitcond43.not = icmp eq i32 %54, %1
  br i1 %exitcond43.not, label %._crit_edge41, label %.lr.ph40, !llvm.loop !157

._crit_edge41:                                    ; preds = %Vec_IntPush.exit, %._crit_edge
  ret ptr %4
}